; Function Attrs: mustprogress nounwind uwtable
define hidden void @_ZN4cvc58internal13preprocessing4util12ITEUtilitiesD2Ev(ptr noundef nonnull align 8 captures(none) dereferenceable(48) initializes((0, 8)) %0) unnamed_addr #6 align 2 personality ptr @__gxx_personality_v0 {
  store ptr getelementptr inbounds nuw inrange(-16, 16) (i8, ptr @_ZTVN4cvc58internal13preprocessing4util12ITEUtilitiesE, i64 16), ptr %0, align 8, !tbaa !3
  %2 = getelementptr inbounds nuw i8, ptr %0, i64 32
  %3 = load ptr, ptr %2, align 8, !tbaa !20
  %.not = icmp eq ptr %3, null
  br i1 %.not, label %8, label %4

4:                                                ; preds = %1
  %5 = load ptr, ptr %3, align 8, !tbaa !3
  %6 = getelementptr inbounds nuw i8, ptr %5, i64 8
  %7 = load ptr, ptr %6, align 8
  tail call void %7(ptr noundef nonnull align 8 dereferenceable(712) %3) #28
  br label %8

8:                                                ; preds = %4, %1
  %9 = getelementptr inbounds nuw i8, ptr %0, i64 24
  %10 = load ptr, ptr %9, align 8, !tbaa !33
  %.not3 = icmp eq ptr %10, null
  br i1 %.not3, label %15, label %11

11:                                               ; preds = %8
  %12 = load ptr, ptr %10, align 8, !tbaa !3
  %13 = getelementptr inbounds nuw i8, ptr %12, i64 8
  %14 = load ptr, ptr %13, align 8
  tail call void %14(ptr noundef nonnull align 8 dereferenceable(184) %10) #28
  br label %15

15:                                               ; preds = %11, %8
  %16 = getelementptr inbounds nuw i8, ptr %0, i64 40
  %17 = load ptr, ptr %16, align 8, !tbaa !34
  %.not4 = icmp eq ptr %17, null
  br i1 %.not4, label %19, label %18

18:                                               ; preds = %15
  tail call void @_ZN4cvc58internal13preprocessing4util17ITECareSimplifierD2Ev(ptr noundef nonnull align 8 dereferenceable(48) %17) #28
  tail call void @_ZdlPvm(ptr noundef nonnull %17, i64 noundef 48) #29
  br label %19

19:                                               ; preds = %18, %15
  %20 = getelementptr inbounds nuw i8, ptr %0, i64 16
  %21 = load ptr, ptr %20, align 8, !tbaa !18
  %.not.i = icmp eq ptr %21, null
  br i1 %.not.i, label %_ZNSt10unique_ptrIN4cvc58internal13preprocessing4util22ContainsTermITEVisitorESt14default_deleteIS4_EED2Ev.exit, label %_ZNKSt14default_deleteIN4cvc58internal13preprocessing4util22ContainsTermITEVisitorEEclEPS4_.exit.i

_ZNKSt14default_deleteIN4cvc58internal13preprocessing4util22ContainsTermITEVisitorEEclEPS4_.exit.i: ; preds = %19
  tail call void @_ZNSt10_HashtableIN4cvc58internal12NodeTemplateILb1EEESt4pairIKS3_bESaIS6_ENSt8__detail10_Select1stESt8equal_toIS3_ESt4hashIS3_ENS8_18_Mod_range_hashingENS8_20_Default_ranged_hashENS8_20_Prime_rehash_policyENS8_17_Hashtable_traitsILb1ELb0ELb1EEEED2Ev(ptr noundef nonnull align 8 dereferenceable(56) %21) #28
  tail call void @_ZdlPvm(ptr noundef nonnull %21, i64 noundef 56) #29
  br label %_ZNSt10unique_ptrIN4cvc58internal13preprocessing4util22ContainsTermITEVisitorESt14default_deleteIS4_EED2Ev.exit

_ZNSt10unique_ptrIN4cvc58internal13preprocessing4util22ContainsTermITEVisitorESt14default_deleteIS4_EED2Ev.exit: ; preds = %19, %_ZNKSt14default_deleteIN4cvc58internal13preprocessing4util22ContainsTermITEVisitorEEclEPS4_.exit.i
  store ptr null, ptr %20, align 8, !tbaa !18
  ret void
}